target datalayout = "e-m:e-p270:32:32-p271:32:32-p272:64:64-i64:64-i128:128-f80:128-n8:16:32:64-S128"
target triple = "x86_64-pc-linux-gnu"

%"class.gmx::ArrayRef" = type { %"struct.gmx::ArrayRefIter", %"struct.gmx::ArrayRefIter" }
%"struct.gmx::ArrayRefIter" = type { ptr }

; Function Attrs: mustprogress nounwind uwtable
define internal void @_ZL8rvec_subPKfS0_Pf(ptr noundef %0, ptr noundef %1, ptr noundef %2) #3 {
  %4 = alloca ptr, align 8
  %5 = alloca ptr, align 8
  %6 = alloca ptr, align 8
  %7 = alloca float, align 4
  %8 = alloca float, align 4
  %9 = alloca float, align 4
  store ptr %0, ptr %4, align 8
  store ptr %1, ptr %5, align 8
  store ptr %2, ptr %6, align 8
  %10 = load ptr, ptr %4, align 8
  %11 = getelementptr inbounds float, ptr %10, i64 0
  %12 = load float, ptr %11, align 4
  %13 = load ptr, ptr %5, align 8
  %14 = getelementptr inbounds float, ptr %13, i64 0
  %15 = load float, ptr %14, align 4
  %16 = fsub float %12, %15
  store float %16, ptr %7, align 4
  %17 = load ptr, ptr %4, align 8
  %18 = getelementptr inbounds float, ptr %17, i64 1
  %19 = load float, ptr %18, align 4
  %20 = load ptr, ptr %5, align 8
  %21 = getelementptr inbounds float, ptr %20, i64 1
  %22 = load float, ptr %21, align 4
  %23 = fsub float %19, %22
  store float %23, ptr %8, align 4
  %24 = load ptr, ptr %4, align 8
  %25 = getelementptr inbounds float, ptr %24, i64 2
  %26 = load float, ptr %25, align 4
  %27 = load ptr, ptr %5, align 8
  %28 = getelementptr inbounds float, ptr %27, i64 2
  %29 = load float, ptr %28, align 4
  %30 = fsub float %26, %29
  store float %30, ptr %9, align 4
  %31 = load float, ptr %7, align 4
  %32 = load ptr, ptr %6, align 8
  %33 = getelementptr inbounds float, ptr %32, i64 0
  store float %31, ptr %33, align 4
  %34 = load float, ptr %8, align 4
  %35 = load ptr, ptr %6, align 8
  %36 = getelementptr inbounds float, ptr %35, i64 1
  store float %34, ptr %36, align 4
  %37 = load float, ptr %9, align 4
  %38 = load ptr, ptr %6, align 8
  %39 = getelementptr inbounds float, ptr %38, i64 2
  store float %37, ptr %39, align 4
  ret void
}

; Function Attrs: mustprogress uwtable
define internal noundef i32 @_ZN12_GLOBAL__N_112pbc_rvec_subEPK5t_pbcPKfS4_Pf(ptr noundef %0, ptr noundef %1, ptr noundef %2, ptr noundef %3) #2 {
  %5 = alloca i32, align 4
  %6 = alloca ptr, align 8
  %7 = alloca ptr, align 8
  %8 = alloca ptr, align 8
  %9 = alloca ptr, align 8
  store ptr %0, ptr %6, align 8
  store ptr %1, ptr %7, align 8
  store ptr %2, ptr %8, align 8
  store ptr %3, ptr %9, align 8
  %10 = load ptr, ptr %6, align 8
  %11 = icmp ne ptr %10, null
  br i1 %11, label %12, label %18

12:                                               ; preds = %4
  %13 = load ptr, ptr %6, align 8
  %14 = load ptr, ptr %7, align 8
  %15 = load ptr, ptr %8, align 8
  %16 = load ptr, ptr %9, align 8
  %17 = call noundef i32 @_Z11pbc_dx_aiucPK5t_pbcPKfS3_Pf(ptr noundef %13, ptr noundef %14, ptr noundef %15, ptr noundef %16)
  store i32 %17, ptr %5, align 4
  br label %22

18:                                               ; preds = %4
  %19 = load ptr, ptr %7, align 8
  %20 = load ptr, ptr %8, align 8
  %21 = load ptr, ptr %9, align 8
  call void @_ZL8rvec_subPKfS0_Pf(ptr noundef %19, ptr noundef %20, ptr noundef %21)
  store i32 22, ptr %5, align 4
  br label %22

22:                                               ; preds = %18, %12
  %23 = load i32, ptr %5, align 4
  ret i32 %23
}

; Function Attrs: mustprogress uwtable
define internal noundef float @_ZN12_GLOBAL__N_111restranglesIL18BondedKernelFlavor0EEEfiPKiPK9t_iparamsPA3_KfPA4_fPA3_fPK5t_pbcfPfN3gmx8ArrayRefIS7_EEP8t_fcdataP12t_disresdataP12t_oriresdataPi(i32 noundef %0, ptr noundef %1, ptr noundef %2, ptr noundef %3, ptr noundef %4, ptr noundef %5, ptr noundef %6, float noundef %7, ptr noundef %8, ptr noundef byval(%"class.gmx::ArrayRef") align 8 %9, ptr noundef %10, ptr noundef %11, ptr noundef %12, ptr noundef %13) #2 {
  %15 = alloca i32, align 4
  %16 = alloca ptr, align 8
  %17 = alloca ptr, align 8
  %18 = alloca ptr, align 8
  %19 = alloca ptr, align 8
  %20 = alloca ptr, align 8
  %21 = alloca ptr, align 8
  %22 = alloca float, align 4
  %23 = alloca ptr, align 8
  %24 = alloca ptr, align 8
  %25 = alloca ptr, align 8
  %26 = alloca ptr, align 8
  %27 = alloca ptr, align 8
  %28 = alloca i32, align 4
  %29 = alloca i32, align 4
  %30 = alloca i32, align 4
  %31 = alloca i32, align 4
  %32 = alloca i32, align 4
  %33 = alloca i32, align 4
  %34 = alloca i32, align 4
  %35 = alloca i32, align 4
  %36 = alloca i32, align 4
  %37 = alloca float, align 4
  %38 = alloca float, align 4
  %39 = alloca [3 x float], align 4
  %40 = alloca [3 x float], align 4
  %41 = alloca [3 x float], align 4
  %42 = alloca double, align 8
  %43 = alloca double, align 8
  %44 = alloca double, align 8
  %45 = alloca [3 x float], align 4
  %46 = alloca [3 x float], align 4
  %47 = alloca [3 x float], align 4
  store i32 %0, ptr %15, align 4
  store ptr %1, ptr %16, align 8
  store ptr %2, ptr %17, align 8
  store ptr %3, ptr %18, align 8
  store ptr %4, ptr %19, align 8
  store ptr %5, ptr %20, align 8
  store ptr %6, ptr %21, align 8
  store float %7, ptr %22, align 4
  store ptr %8, ptr %23, align 8
  store ptr %10, ptr %24, align 8
  store ptr %11, ptr %25, align 8
  store ptr %12, ptr %26, align 8
  store ptr %13, ptr %27, align 8
  store float 0.000000e+00, ptr %38, align 4
  store i32 0, ptr %28, align 4
  br label %48

48:                                               ; preds = %238, %14
  %49 = load i32, ptr %28, align 4
  %50 = load i32, ptr %15, align 4
  %51 = icmp slt i32 %49, %50
  br i1 %51, label %52, label %239

52:                                               ; preds = %48
  %53 = load ptr, ptr %16, align 8
  %54 = load i32, ptr %28, align 4
  %55 = add nsw i32 %54, 1
  store i32 %55, ptr %28, align 4
  %56 = sext i32 %54 to i64
  %57 = getelementptr inbounds i32, ptr %53, i64 %56
  %58 = load i32, ptr %57, align 4
  store i32 %58, ptr %33, align 4
  %59 = load ptr, ptr %16, align 8
  %60 = load i32, ptr %28, align 4
  %61 = add nsw i32 %60, 1
  store i32 %61, ptr %28, align 4
  %62 = sext i32 %60 to i64
  %63 = getelementptr inbounds i32, ptr %59, i64 %62
  %64 = load i32, ptr %63, align 4
  store i32 %64, ptr %30, align 4
  %65 = load ptr, ptr %16, align 8
  %66 = load i32, ptr %28, align 4
  %67 = add nsw i32 %66, 1
  store i32 %67, ptr %28, align 4
  %68 = sext i32 %66 to i64
  %69 = getelementptr inbounds i32, ptr %65, i64 %68
  %70 = load i32, ptr %69, align 4
  store i32 %70, ptr %31, align 4
  %71 = load ptr, ptr %16, align 8
  %72 = load i32, ptr %28, align 4
  %73 = add nsw i32 %72, 1
  store i32 %73, ptr %28, align 4
  %74 = sext i32 %72 to i64
  %75 = getelementptr inbounds i32, ptr %71, i64 %74
  %76 = load i32, ptr %75, align 4
  store i32 %76, ptr %32, align 4
  %77 = load ptr, ptr %21, align 8
  %78 = load ptr, ptr %18, align 8
  %79 = load i32, ptr %30, align 4
  %80 = sext i32 %79 to i64
  %81 = getelementptr inbounds [3 x float], ptr %78, i64 %80
  %82 = getelementptr inbounds [3 x float], ptr %81, i64 0, i64 0
  %83 = load ptr, ptr %18, align 8
  %84 = load i32, ptr %31, align 4
  %85 = sext i32 %84 to i64
  %86 = getelementptr inbounds [3 x float], ptr %83, i64 %85
  %87 = getelementptr inbounds [3 x float], ptr %86, i64 0, i64 0
  %88 = getelementptr inbounds [3 x float], ptr %47, i64 0, i64 0
  %89 = call noundef i32 @_ZN12_GLOBAL__N_112pbc_rvec_subEPK5t_pbcPKfS4_Pf(ptr noundef %77, ptr noundef %82, ptr noundef %87, ptr noundef %88)
  store i32 %89, ptr %35, align 4
  %90 = load ptr, ptr %21, align 8
  %91 = load ptr, ptr %18, align 8
  %92 = load i32, ptr %31, align 4
  %93 = sext i32 %92 to i64
  %94 = getelementptr inbounds [3 x float], ptr %91, i64 %93
  %95 = getelementptr inbounds [3 x float], ptr %94, i64 0, i64 0
  %96 = load ptr, ptr %18, align 8
  %97 = load i32, ptr %30, align 4
  %98 = sext i32 %97 to i64
  %99 = getelementptr inbounds [3 x float], ptr %96, i64 %98
  %100 = getelementptr inbounds [3 x float], ptr %99, i64 0, i64 0
  %101 = getelementptr inbounds [3 x float], ptr %45, i64 0, i64 0
  %102 = call noundef i32 @_ZN12_GLOBAL__N_112pbc_rvec_subEPK5t_pbcPKfS4_Pf(ptr noundef %90, ptr noundef %95, ptr noundef %100, ptr noundef %101)
  %103 = load ptr, ptr %21, align 8
  %104 = load ptr, ptr %18, align 8
  %105 = load i32, ptr %32, align 4
  %106 = sext i32 %105 to i64
  %107 = getelementptr inbounds [3 x float], ptr %104, i64 %106
  %108 = getelementptr inbounds [3 x float], ptr %107, i64 0, i64 0
  %109 = load ptr, ptr %18, align 8
  %110 = load i32, ptr %31, align 4
  %111 = sext i32 %110 to i64
  %112 = getelementptr inbounds [3 x float], ptr %109, i64 %111
  %113 = getelementptr inbounds [3 x float], ptr %112, i64 0, i64 0
  %114 = getelementptr inbounds [3 x float], ptr %46, i64 0, i64 0
  %115 = call noundef i32 @_ZN12_GLOBAL__N_112pbc_rvec_subEPK5t_pbcPKfS4_Pf(ptr noundef %103, ptr noundef %108, ptr noundef %113, ptr noundef %114)
  store i32 %115, ptr %36, align 4
  %116 = load i32, ptr %33, align 4
  %117 = load ptr, ptr %17, align 8
  %118 = getelementptr inbounds [3 x float], ptr %45, i64 0, i64 0
  %119 = getelementptr inbounds [3 x float], ptr %46, i64 0, i64 0
  call void @_Z26compute_factors_restanglesiPK9t_iparamsPfS2_PdS3_S3_S2_(i32 noundef %116, ptr noundef %117, ptr noundef %118, ptr noundef %119, ptr noundef %42, ptr noundef %43, ptr noundef %44, ptr noundef %37)
  store i32 0, ptr %29, align 4
  br label %120

120:                                              ; preds = %185, %52
  %121 = load i32, ptr %29, align 4
  %122 = icmp slt i32 %121, 3
  br i1 %122, label %123, label %188

123:                                              ; preds = %120
  %124 = load double, ptr %42, align 8
  %125 = load double, ptr %43, align 8
  %126 = load i32, ptr %29, align 4
  %127 = sext i32 %126 to i64
  %128 = getelementptr inbounds [3 x float], ptr %45, i64 0, i64 %127
  %129 = load float, ptr %128, align 4
  %130 = fpext float %129 to double
  %131 = load i32, ptr %29, align 4
  %132 = sext i32 %131 to i64
  %133 = getelementptr inbounds [3 x float], ptr %46, i64 0, i64 %132
  %134 = load float, ptr %133, align 4
  %135 = fpext float %134 to double
  %136 = fneg double %135
  %137 = call double @llvm.fmuladd.f64(double %125, double %130, double %136)
  %138 = fmul double %124, %137
  %139 = fptrunc double %138 to float
  %140 = load i32, ptr %29, align 4
  %141 = sext i32 %140 to i64
  %142 = getelementptr inbounds [3 x float], ptr %39, i64 0, i64 %141
  store float %139, ptr %142, align 4
  %143 = load double, ptr %42, align 8
  %144 = load double, ptr %44, align 8
  %145 = fadd double %144, 1.000000e+00
  %146 = load i32, ptr %29, align 4
  %147 = sext i32 %146 to i64
  %148 = getelementptr inbounds [3 x float], ptr %46, i64 0, i64 %147
  %149 = load float, ptr %148, align 4
  %150 = fpext float %149 to double
  %151 = load double, ptr %43, align 8
  %152 = fadd double %151, 1.000000e+00
  %153 = load i32, ptr %29, align 4
  %154 = sext i32 %153 to i64
  %155 = getelementptr inbounds [3 x float], ptr %45, i64 0, i64 %154
  %156 = load float, ptr %155, align 4
  %157 = fpext float %156 to double
  %158 = fmul double %152, %157
  %159 = fneg double %158
  %160 = call double @llvm.fmuladd.f64(double %145, double %150, double %159)
  %161 = fmul double %143, %160
  %162 = fptrunc double %161 to float
  %163 = load i32, ptr %29, align 4
  %164 = sext i32 %163 to i64
  %165 = getelementptr inbounds [3 x float], ptr %40, i64 0, i64 %164
  store float %162, ptr %165, align 4
  %166 = load double, ptr %42, align 8
  %167 = load i32, ptr %29, align 4
  %168 = sext i32 %167 to i64
  %169 = getelementptr inbounds [3 x float], ptr %45, i64 0, i64 %168
  %170 = load float, ptr %169, align 4
  %171 = fpext float %170 to double
  %172 = load double, ptr %44, align 8
  %173 = load i32, ptr %29, align 4
  %174 = sext i32 %173 to i64
  %175 = getelementptr inbounds [3 x float], ptr %46, i64 0, i64 %174
  %176 = load float, ptr %175, align 4
  %177 = fpext float %176 to double
  %178 = fneg double %172
  %179 = call double @llvm.fmuladd.f64(double %178, double %177, double %171)
  %180 = fmul double %166, %179
  %181 = fptrunc double %180 to float
  %182 = load i32, ptr %29, align 4
  %183 = sext i32 %182 to i64
  %184 = getelementptr inbounds [3 x float], ptr %41, i64 0, i64 %183
  store float %181, ptr %184, align 4
  br label %185

185:                                              ; preds = %123
  %186 = load i32, ptr %29, align 4
  %187 = add nsw i32 %186, 1
  store i32 %187, ptr %29, align 4
  br label %120, !llvm.loop !25

188:                                              ; preds = %120
  %189 = load float, ptr %37, align 4
  %190 = load float, ptr %38, align 4
  %191 = fadd float %190, %189
  store float %191, ptr %38, align 4
  store i32 0, ptr %34, align 4
  br label %192

192:                                              ; preds = %235, %188
  %193 = load i32, ptr %34, align 4
  %194 = icmp slt i32 %193, 3
  br i1 %194, label %195, label %238

195:                                              ; preds = %192
  %196 = load i32, ptr %34, align 4
  %197 = sext i32 %196 to i64
  %198 = getelementptr inbounds [3 x float], ptr %39, i64 0, i64 %197
  %199 = load float, ptr %198, align 4
  %200 = load ptr, ptr %19, align 8
  %201 = load i32, ptr %30, align 4
  %202 = sext i32 %201 to i64
  %203 = getelementptr inbounds [4 x float], ptr %200, i64 %202
  %204 = load i32, ptr %34, align 4
  %205 = sext i32 %204 to i64
  %206 = getelementptr inbounds [4 x float], ptr %203, i64 0, i64 %205
  %207 = load float, ptr %206, align 4
  %208 = fadd float %207, %199
  store float %208, ptr %206, align 4
  %209 = load i32, ptr %34, align 4
  %210 = sext i32 %209 to i64
  %211 = getelementptr inbounds [3 x float], ptr %40, i64 0, i64 %210
  %212 = load float, ptr %211, align 4
  %213 = load ptr, ptr %19, align 8
  %214 = load i32, ptr %31, align 4
  %215 = sext i32 %214 to i64
  %216 = getelementptr inbounds [4 x float], ptr %213, i64 %215
  %217 = load i32, ptr %34, align 4
  %218 = sext i32 %217 to i64
  %219 = getelementptr inbounds [4 x float], ptr %216, i64 0, i64 %218
  %220 = load float, ptr %219, align 4
  %221 = fadd float %220, %212
  store float %221, ptr %219, align 4
  %222 = load i32, ptr %34, align 4
  %223 = sext i32 %222 to i64
  %224 = getelementptr inbounds [3 x float], ptr %41, i64 0, i64 %223
  %225 = load float, ptr %224, align 4
  %226 = load ptr, ptr %19, align 8
  %227 = load i32, ptr %32, align 4
  %228 = sext i32 %227 to i64
  %229 = getelementptr inbounds [4 x float], ptr %226, i64 %228
  %230 = load i32, ptr %34, align 4
  %231 = sext i32 %230 to i64
  %232 = getelementptr inbounds [4 x float], ptr %229, i64 0, i64 %231
  %233 = load float, ptr %232, align 4
  %234 = fadd float %233, %225
  store float %234, ptr %232, align 4
  br label %235

235:                                              ; preds = %195
  %236 = load i32, ptr %34, align 4
  %237 = add nsw i32 %236, 1
  store i32 %237, ptr %34, align 4
  br label %192, !llvm.loop !26

238:                                              ; preds = %192
  br label %48, !llvm.loop !27

239:                                              ; preds = %48
  %240 = load float, ptr %38, align 4
  ret float %240
}